(dp0
S'FHIT'
p1
(lp2
S'3'
p3
aI59751407
aI61251459
asS'HIST1H4I'
p4
(lp5
S'6'
p6
aI27138588
aI27139881
asS'STK11'
p7
(lp8
S'19'
p9
aI1206464
aI1228435
asS'MEN1'
p10
(lp11
S'11'
p12
aI64803524
aI64811294
asS'IL6ST'
p13
(lp14
S'5'
p15
aI55935095
aI55994993
asS'B2M'
p16
(lp17
S'15'
p18
aI44711477
aI44718877
asS'LIFR'
p19
(lp20
g15
aI38474963
aI38595404
asS'CDC73'
p21
(lp22
S'1'
p23
aI193122017
aI193253901
asS'PIK3CA'
p24
(lp25
g3
aI179148523
aI179240093
asS'PIK3CB'
p26
(lp27
g3
aI138652699
aI138759359
asS'CBLC'
p28
(lp29
g9
aI44777869
aI44800634
asS'CBLB'
p30
(lp31
g3
aI105655461
aI105869043
asS'ARHGEF12'
p32
(lp33
g12
aI120337078
aI120489936
asS'TFE3'
p34
(lp35
S'X'
p36
aI49028731
aI49043486
asS'NUP98'
p37
(lp38
g12
aI3675010
aI3797792
asS'MUC1'
p39
(lp40
g23
aI155185826
aI155192915
asS'PPARG'
p41
(lp42
g3
aI12351472
aI12434356
asS'SLC45A3'
p43
(lp44
g23
aI205657851
aI205680459
asS'CSF3R'
p45
(lp46
g23
aI36466043
aI36483278
asS'GATA2'
p47
(lp48
g3
aI128479427
aI128493185
asS'GATA3'
p49
(lp50
S'10'
p51
aI8054653
aI8075203
asS'GATA1'
p52
(lp53
g36
aI48786554
aI48794308
asS'SFRP4'
p54
(lp55
S'7'
p56
aI37905932
aI37916915
asS'POU2AF1'
p57
(lp58
g12
aI111352252
aI111379692
asS'CCND1'
p59
(lp60
g12
aI69641087
aI69654474
asS'MAX'
p61
(lp62
S'14'
p63
aI65075544
aI65102470
asS'CCND3'
p64
(lp65
g6
aI41934933
aI41941848
asS'CCND2'
p66
(lp67
S'12'
p68
aI4273772
aI4305350
asS'PTEN'
p69
(lp70
g51
aI87863113
aI87971930
asS'MAF'
p71
(lp72
S'16'
p73
aI79593838
aI79600714
asS'CTCF'
p74
(lp75
g73
aI67562467
aI67639176
asS'IL7R'
p76
(lp77
g15
aI35856849
aI35879603
asS'IL21R'
p78
(lp79
g73
aI27402162
aI27452042
asS'ACVR1B'
p80
(lp81
g68
aI51951701
aI51994217
asS'CDKN1B'
p82
(lp83
g68
aI12717124
aI12722371
asS'SETBP1'
p84
(lp85
S'18'
p86
aI44680898
aI45068510
asS'TRAF7'
p87
(lp88
g73
aI2155765
aI2178129
asS'XPO1'
p89
(lp90
S'2'
p91
aI61477849
aI61538283
asS'CHCHD7'
p92
(lp93
S'8'
p94
aI56211756
aI56218615
asS'MTCP1'
p95
(lp96
g36
aI155064034
aI155071226
asS'JAK2'
p97
(lp98
S'9'
p99
aI4985245
aI5128183
asS'JAK3'
p100
(lp101
g9
aI17824786
aI17848032
asS'NF1'
p102
(lp103
S'17'
p104
aI31094927
aI31377677
asS'JAK1'
p105
(lp106
g23
aI64833229
aI64966504
asS'HOXC11'
p107
(lp108
g68
aI53973126
aI53977643
asS'CUX1'
p109
(lp110
g56
aI101816011
aI102258233
asS'HOXC13'
p111
(lp112
g68
aI53938765
aI53946544
asS'RAP1GDS1'
p113
(lp114
S'4'
p115
aI98261518
aI98442334
asS'PSIP1'
p116
(lp117
g99
aI15464066
aI15511019
asS'CBL'
p118
(lp119
g12
aI119206276
aI119308149
asS'PRDM1'
p120
(lp121
g6
aI106086320
aI106109938
asS'SH3GL1'
p122
(lp123
g9
aI4360370
aI4400547
asS'HLF'
p124
(lp125
g104
aI55265012
aI55325065
asS'EIF4A2'
p126
(lp127
g3
aI186783547
aI186789900
asS'MYH11'
p128
(lp129
g73
aI15703172
aI15857011
asS'POLQ'
p130
(lp131
g3
aI121431431
aI121546006
asS'SMAD4'
p132
(lp133
g86
aI51030213
aI51085039
asS'RET'
p134
(lp135
g51
aI43077027
aI43130351
asS'SMAD3'
p136
(lp137
g18
aI67065845
aI67195195
asS'SMO'
p138
(lp139
g56
aI129188872
aI129213545
asS'POLE'
p140
(lp141
g68
aI132623762
aI132687359
asS'EML4'
p142
(lp143
g91
aI42169350
aI42332548
asS'REL'
p144
(lp145
g91
aI60881521
aI60931610
asS'DCTN1'
p146
(lp147
g91
aI74361154
aI74380355
asS'COL2A1'
p148
(lp149
g68
aI47972965
aI48004486
asS'TSC1'
p150
(lp151
g99
aI132891348
aI132944633
asS'NCOA2'
p152
(lp153
g94
aI70109762
aI70403805
asS'CREBBP'
p154
(lp155
g73
aI3725054
aI3880726
asS'NCOA1'
p156
(lp157
g91
aI24491932
aI24770702
asS'NCOA4'
p158
(lp159
g51
aI46006412
aI46030607
asS'CIITA'
p160
(lp161
g73
aI10877198
aI10924983
asS'RBM10'
p162
(lp163
g36
aI47145447
aI47186812
asS'RBM15'
p164
(lp165
g23
aI110338506
aI110346677
asS'PRDM16'
p166
(lp167
g23
aI3069211
aI3438621
asS'TCEA1'
p168
(lp169
g94
aI53966556
aI54022529
asS'SS18'
p170
(lp171
g86
aI26016253
aI26090625
asS'PRKAR1A'
p172
(lp173
g104
aI68512379
aI68533423
asS'LASP1'
p174
(lp175
g104
aI38869859
aI38921770
asS'LRIG3'
p176
(lp177
g68
aI58872149
aI58920522
asS'LEF1'
p178
(lp179
g115
aI108047545
aI108168422
asS'OLIG2'
p180
(lp181
S'21'
p182
aI33025935
aI33029196
asS'ALK'
p183
(lp184
g91
aI29192774
aI29921566
asS'LMO1'
p185
(lp186
g12
aI8224304
aI8263858
asS'LMO2'
p187
(lp188
g12
aI33858576
aI33892289
asS'AFDN'
p189
(lp190
g6
aI167827635
aI167970232
asS'FOXO1'
p191
(lp192
S'13'
p193
aI40555667
aI40666597
asS'ATP1A1'
p194
(lp195
g23
aI116373867
aI116404772
asS'PBRM1'
p196
(lp197
g3
aI52547841
aI52685836
asS'ERBB2'
p198
(lp199
g104
aI39700080
aI39728662
asS'ERC1'
p200
(lp201
g68
aI1027747
aI1495924
asS'FOXO4'
p202
(lp203
g36
aI71096197
aI71103535
asS'EGFR'
p204
(lp205
g56
aI55019101
aI55211628
asS'HNF1A'
p206
(lp207
g68
aI120978749
aI121001269
asS'BAX'
p208
(lp209
g9
aI48954929
aI48961798
asS'CTNNB1'
p210
(lp211
g3
aI41220551
aI41239888
asS'PLCG1'
p212
(lp213
S'20'
p214
aI41136960
aI41175721
asS'ERG'
p215
(lp216
g182
aI38380027
aI38661694
asS'MITF'
p217
(lp218
g3
aI69739435
aI69968336
asS'EPS15'
p219
(lp220
g23
aI51354263
aI51519328
asS'HERPUD1'
p221
(lp222
g73
aI56932048
aI56944863
asS'MYOD1'
p223
(lp224
g12
aI17719568
aI17722131
asS'DDX10'
p225
(lp226
g12
aI108665025
aI108940930
asS'CDK12'
p227
(lp228
g104
aI39462039
aI39535146
asS'KLF6'
p229
(lp230
g51
aI3775996
aI3785275
asS'CLIP1'
p231
(lp232
g68
aI122271434
aI122422569
asS'KLF4'
p233
(lp234
g99
aI107484852
aI107489646
asS'ETNK1'
p235
(lp236
g68
aI22625075
aI22690665
asS'CXCR4'
p237
(lp238
g91
aI136114349
aI136116243
asS'CNOT3'
p239
(lp240
g9
aI54141396
aI54155680
asS'FIP1L1'
p241
(lp242
g115
aI53377645
aI53459668
asS'STAT5B'
p243
(lp244
g104
aI42199168
aI42276406
asS'QKI'
p245
(lp246
g6
aI163414643
aI163578596
asS'P2RY8'
p247
(lp248
g36
aI1462572
aI1537107
asS'FGFR1OP'
p249
(lp250
g6
aI166999182
aI167052713
asS'SUFU'
p251
(lp252
g51
aI102503987
aI102633535
asS'HGF'
p253
(lp254
g56
aI81699008
aI81770198
asS'TRIP11'
p255
(lp256
g63
aI91965991
aI92040059
asS'PHOX2B'
p257
(lp258
g115
aI41744082
aI41748970
asS'TCL1A'
p259
(lp260
g63
aI95709968
aI95714196
asS'ZMYM2'
p261
(lp262
g193
aI19958670
aI20091829
asS'PRCC'
p263
(lp264
g23
aI156767500
aI156800817
asS'CALR'
p265
(lp266
g9
aI12938607
aI12944489
asS'MAP3K13'
p267
(lp268
g3
aI185363120
aI185489097
asS'BTK'
p269
(lp270
g36
aI101349447
aI101390796
asS'EWSR1'
p271
(lp272
S'22'
p273
aI29268316
aI29300343
asS'RPN1'
p274
(lp275
g3
aI128619970
aI128650849
asS'IKBKB'
p276
(lp277
g94
aI42271302
aI42331608
asS'RPL22'
p278
(lp279
g23
aI6185020
aI6199612
asS'FGFR4'
p280
(lp281
g15
aI177086886
aI177098144
asS'RARA'
p282
(lp283
g104
aI40309194
aI40356796
asS'NFE2L2'
p284
(lp285
g91
aI177230305
aI177265131
asS'EIF3E'
p286
(lp287
g94
aI108201743
aI108248765
asS'SIX1'
p288
(lp289
g63
aI60643415
aI60649462
asS'CBFB'
p290
(lp291
g73
aI67029245
aI67101022
asS'CDH1'
p292
(lp293
g73
aI68737225
aI68835548
asS'BRD3'
p294
(lp295
g99
aI134030305
aI134068017
asS'CDKN2C'
p296
(lp297
g23
aI50960745
aI50974633
asS'CDKN2A'
p298
(lp299
g99
aI21968056
aI21974866
asS'BARD1'
p300
(lp301
g91
aI214725646
aI214809704
asS'LPP'
p302
(lp303
g3
aI188212933
aI188890671
asS'KLK2'
p304
(lp305
g9
aI50873249
aI50880567
asS'WDCP'
p306
(lp307
g91
aI24029340
aI24047353
asS'TPR'
p308
(lp309
g23
aI186311652
aI186375325
asS'PAFAH1B2'
p310
(lp311
g12
aI117144267
aI117171048
asS'ARID1B'
p312
(lp313
g6
aI156777374
aI157210779
asS'ARID1A'
p314
(lp315
g23
aI26696033
aI26782110
asS'SYK'
p316
(lp317
g99
aI90801787
aI90898549
asS'CYLD'
p318
(lp319
g73
aI50742760
aI50801935
asS'ELK4'
p320
(lp321
g23
aI205607943
aI205631962
asS'APC'
p322
(lp323
g15
aI112737888
aI112846239
asS'PTPN11'
p324
(lp325
g68
aI112419112
aI112504764
asS'NFATC2'
p326
(lp327
g214
aI51386957
aI51542719
asS'FOXP1'
p328
(lp329
g3
aI70954715
aI71583989
asS'FUS'
p330
(lp331
g73
aI31180110
aI31194871
asS'FUBP1'
p332
(lp333
g23
aI77948405
aI77979086
asS'WIF1'
p334
(lp335
g68
aI65050626
aI65121566
asS'MYCN'
p336
(lp337
g91
aI15940564
aI15947007
asS'MYCL'
p338
(lp339
g23
aI39895426
aI39902013
asS'U2AF1'
p340
(lp341
g182
aI43092956
aI43107587
asS'CCNE1'
p342
(lp343
g9
aI29811898
aI29824308
asS'IKZF3'
p344
(lp345
g104
aI39757715
aI39864188
asS'CAMTA1'
p346
(lp347
g23
aI6785324
aI7769706
asS'TGFBR2'
p348
(lp349
g3
aI30606601
aI30694142
asS'TCF3'
p350
(lp351
g9
aI1609290
aI1652329
asS'ARID2'
p352
(lp353
g68
aI45729665
aI45908040
asS'TCF12'
p354
(lp355
g18
aI56918623
aI57288514
asS'MLLT10'
p356
(lp357
g51
aI21534343
aI21743630
asS'MLLT11'
p358
(lp359
g23
aI151057758
aI151068497
asS'CCDC6'
p360
(lp361
g51
aI59788763
aI59906656
asS'EPAS1'
p362
(lp363
g91
aI46297402
aI46386703
asS'IRF4'
p364
(lp365
g6
aI391739
aI411447
asS'NSD1'
p366
(lp367
g15
aI177133925
aI177300215
asS'NSD3'
p368
(lp369
g94
aI38269697
aI38382272
asS'NSD2'
p370
(lp371
g115
aI1892845
aI1982207
asS'GAS7'
p372
(lp373
g104
aI9913850
aI10198551
asS'CD74'
p374
(lp375
g15
aI150402152
aI150412751
asS'PDGFRB'
p376
(lp377
g15
aI150113837
aI150155860
asS'PDGFRA'
p378
(lp379
g115
aI54229097
aI54298247
asS'TPM4'
p380
(lp381
g9
aI16067538
aI16102943
asS'ZNF331'
p382
(lp383
g9
aI53521024
aI53580269
asS'ATM'
p384
(lp385
g12
aI108222832
aI108369099
asS'ZFHX3'
p386
(lp387
g73
aI72782885
aI73891871
asS'CNBP'
p388
(lp389
g3
aI129170102
aI129183910
asS'ATR'
p390
(lp391
g3
aI142449237
aI142578826
asS'FLT4'
p392
(lp393
g15
aI180601506
aI180649624
asS'FLT3'
p394
(lp395
g193
aI28003274
aI28100592
asS'MLF1'
p396
(lp397
g3
aI158582835
aI158606459
asS'SET'
p398
(lp399
g99
aI128683655
aI128696400
asS'ZBTB16'
p400
(lp401
g12
aI114059593
aI114250676
asS'POLD1'
p402
(lp403
g9
aI50384340
aI50418010
asS'MECOM'
p404
(lp405
g3
aI169083499
aI169146305
asS'DNAJB1'
p406
(lp407
g9
aI14514770
aI14518420
asS'MYH9'
p408
(lp409
g273
aI36281277
aI36388067
asS'TPM3'
p410
(lp411
g23
aI154167465
aI154192211
asS'RAF1'
p412
(lp413
g3
aI12583601
aI12664226
asS'FBXW7'
p414
(lp415
g115
aI152320544
aI152536063
asS'ACVR2A'
p416
(lp417
g91
aI147844517
aI147930824
asS'TET1'
p418
(lp419
g51
aI68560656
aI68694482
asS'CARS'
p420
(lp421
g12
aI3000922
aI3057437
asS'TET2'
p422
(lp423
g115
aI105146293
aI105279816
asS'MTOR'
p424
(lp425
g23
aI11106535
aI11262507
asS'NUTM1'
p426
(lp427
g18
aI34343315
aI34357728
asS'EP300'
p428
(lp429
g273
aI41091786
aI41180079
asS'ITK'
p430
(lp431
g15
aI157180826
aI157255191
asS'ARNT'
p432
(lp433
g23
aI150809705
aI150876768
asS'IRS4'
p434
(lp435
g36
aI108732482
aI108736409
asS'TNFRSF14'
p436
(lp437
g23
aI2556366
aI2563829
asS'KEAP1'
p438
(lp439
g9
aI10486120
aI10503741
asS'CDK6'
p440
(lp441
g56
aI92604921
aI92833917
asS'RAD50'
p442
(lp443
g15
aI132556938
aI132646344
asS'RANBP2'
p444
(lp445
g91
aI108719481
aI108785811
asS'TFG'
p446
(lp447
g3
aI100709425
aI100748966
asS'HOXA9'
p448
(lp449
g56
aI27162435
aI27165530
asS'USP8'
p450
(lp451
g18
aI50424382
aI50514419
asS'KTN1'
p452
(lp453
g63
aI55580317
aI55684579
asS'PTK6'
p454
(lp455
g214
aI63528001
aI63537354
asS'MSH2'
p456
(lp457
g91
aI47402969
aI47483228
asS'SF3B1'
p458
(lp459
g91
aI197389784
aI197435091
asS'MSH6'
p460
(lp461
g91
aI47783082
aI47810101
asS'EZH2'
p462
(lp463
g56
aI148807385
aI148884278
asS'CCNB1IP1'
p464
(lp465
g63
aI20311368
aI20333312
asS'SOX2'
p466
(lp467
g3
aI181711924
aI181714436
asS'HIP1'
p468
(lp469
g56
aI75533300
aI75738947
asS'CEBPA'
p470
(lp471
g9
aI33299934
aI33302564
asS'AXIN2'
p472
(lp473
g104
aI65528563
aI65561647
asS'AXIN1'
p474
(lp475
g73
aI287440
aI352659
asS'RB1'
p476
(lp477
g193
aI48303726
aI48481890
asS'MDM4'
p478
(lp479
g23
aI204516383
aI204558120
asS'MED12'
p480
(lp481
g36
aI71118723
aI71142447
asS'SUZ12'
p482
(lp483
g104
aI31937018
aI32001045
asS'FCRL4'
p484
(lp485
g23
aI157573749
aI157598080
asS'YWHAE'
p486
(lp487
g104
aI1344272
aI1400378
asS'RAC1'
p488
(lp489
g56
aI6374539
aI6402520
asS'NR4A3'
p490
(lp491
g99
aI99821855
aI99866891
asS'CARD11'
p492
(lp493
g56
aI2906141
aI3043945
asS'FCGR2B'
p494
(lp495
g23
aI161663161
aI161678654
asS'HIST1H3B'
p496
(lp497
g6
aI26031650
aI26032060
asS'EBF1'
p498
(lp499
g15
aI158695920
aI159099761
asS'PDCD1LG2'
p500
(lp501
g99
aI5510570
aI5571254
asS'LMNA'
p502
(lp503
g23
aI156114707
aI156140089
asS'PBX1'
p504
(lp505
g23
aI164559635
aI164851831
asS'BCL6'
p506
(lp507
g3
aI187721377
aI187745727
asS'ABI1'
p508
(lp509
g51
aI26746593
aI26860935
asS'NOTCH1'
p510
(lp511
g99
aI136494433
aI136545786
asS'NOTCH2'
p512
(lp513
g23
aI119911553
aI120069626
asS'ACKR3'
p514
(lp515
g91
aI236569641
aI236582358
asS'ARHGAP35'
p516
(lp517
g9
aI46918676
aI47005077
asS'CANT1'
p518
(lp519
g104
aI78991717
aI79009817
asS'FOXL2'
p520
(lp521
g3
aI138944224
aI138947140
asS'CNTRL'
p522
(lp523
g99
aI121075012
aI121177608
asS'PTCH1'
p524
(lp525
g99
aI95442980
aI95508661
asS'CRLF2'
p526
(lp527
g36
aI1190490
aI1212750
asS'SND1'
p528
(lp529
g56
aI127652180
aI128092607
asS'AFF3'
p530
(lp531
g91
aI99551121
aI100106128
asS'FBXO11'
p532
(lp533
g91
aI47806920
aI47905793
asS'ZNF384'
p534
(lp535
g68
aI6666648
aI6689510
asS'MAP3K1'
p536
(lp537
g15
aI56815574
aI56896152
asS'CACNA1D'
p538
(lp539
g3
aI53495049
aI53813733
asS'CBFA2T3'
p540
(lp541
g73
aI88874858
aI88977204
asS'NUP214'
p542
(lp543
g99
aI131125561
aI131234670
asS'H3F3B'
p544
(lp545
g104
aI75776434
aI75779779
asS'BRCA1'
p546
(lp547
g104
aI43044295
aI43125483
asS'ERBB3'
p548
(lp549
g68
aI56079861
aI56103505
asS'BRCA2'
p550
(lp551
g193
aI32315474
aI32400266
asS'H3F3A'
p552
(lp553
g23
aI226063977
aI226072001
asS'ERBB4'
p554
(lp555
g91
aI211375717
aI212538841
asS'TRIM24'
p556
(lp557
g56
aI138460334
aI138589993
asS'IDH2'
p558
(lp559
g18
aI90083045
aI90102504
asS'IDH1'
p560
(lp561
g91
aI208236265
aI208254322
asS'TRIM27'
p562
(lp563
g6
aI28903002
aI28923989
asS'CREB1'
p564
(lp565
g91
aI207529892
aI207603431
asS'PER1'
p566
(lp567
g104
aI8140472
aI8152435
asS'RPL10'
p568
(lp569
g36
aI154398230
aI154402339
asS'BRD4'
p570
(lp571
g9
aI15235519
aI15280451
asS'PATZ1'
p572
(lp573
g273
aI31325804
aI31346232
asS'MDM2'
p574
(lp575
g68
aI68808176
aI68850686
asS'SETD2'
p576
(lp577
g3
aI47016689
aI47163967
asS'FGFR2'
p578
(lp579
g51
aI121479857
aI121598403
asS'FGFR3'
p580
(lp581
g115
aI1793312
aI1808872
asS'FGFR1'
p582
(lp583
g94
aI38411138
aI38467845
asS'RSPO3'
p584
(lp585
g6
aI127118604
aI127197296
asS'RSPO2'
p586
(lp587
g94
aI107899317
aI108083648
asS'ATIC'
p588
(lp589
g91
aI215311817
aI215349763
asS'NIN'
p590
(lp591
g63
aI50725840
aI50831121
asS'PTPN13'
p592
(lp593
g115
aI86594315
aI86815171
asS'KIF5B'
p594
(lp595
g51
aI32009010
aI32056431
asS'PPFIBP1'
p596
(lp597
g68
aI27524206
aI27695564
asS'TCF7L2'
p598
(lp599
g51
aI112950407
aI113167493
asS'KIT'
p600
(lp601
g115
aI54657918
aI54740715
asS'FOXA1'
p602
(lp603
g63
aI37589984
aI37595034
asS'RUNX1'
p604
(lp605
g182
aI34787801
aI35049344
asS'PRRX1'
p606
(lp607
g23
aI170663906
aI170739419
asS'MYO5A'
p608
(lp609
g18
aI52307283
aI52529050
asS'SMARCA4'
p610
(lp611
g9
aI10960825
aI11062282
asS'LZTR1'
p612
(lp613
g273
aI20982013
aI20999038
asS'RNF213'
p614
(lp615
g104
aI80260868
aI80398786
asS'HRAS'
p616
(lp617
g12
aI532243
aI535550
asS'RRAS2'
p618
(lp619
g12
aI14278750
aI14359184
asS'HIF1A'
p620
(lp621
g63
aI61697622
aI61748259
asS'CRTC1'
p622
(lp623
g9
aI18683678
aI18782333
asS'TNFRSF17'
p624
(lp625
g73
aI11965107
aI11968068
asS'CRTC3'
p626
(lp627
g18
aI90530068
aI90642813
asS'NDRG1'
p628
(lp629
g94
aI133237176
aI133297586
asS'DAXX'
p630
(lp631
g6
aI33318558
aI33323014
asS'STIL'
p632
(lp633
g23
aI47250142
aI47314140
asS'PPM1D'
p634
(lp635
g104
aI60600183
aI60666280
asS'MAML2'
p636
(lp637
g12
aI95976598
aI96343180
asS'SRSF3'
p638
(lp639
g6
aI36594368
aI36605600
asS'PDE4DIP'
p640
(lp641
g23
aI148889463
aI149033016
asS'NONO'
p642
(lp643
g36
aI71283583
aI71301168
asS'AFF4'
p644
(lp645
g15
aI132875379
aI132963634
asS'JUN'
p646
(lp647
g23
aI58780788
aI58784327
asS'AFF1'
p648
(lp649
g115
aI86935002
aI87141054
asS'ROS1'
p650
(lp651
g6
aI117288300
aI117425855
asS'PPP6C'
p652
(lp653
g99
aI125146574
aI125189939
asS'TRRAP'
p654
(lp655
g56
aI98878490
aI99013243
asS'PAX5'
p656
(lp657
g99
aI36833275
aI37034185
asS'PAX7'
p658
(lp659
g23
aI18631006
aI18736138
asS'PAX3'
p660
(lp661
g91
aI222199888
aI222298981
asS'PAX8'
p662
(lp663
g91
aI113215997
aI113278921
asS'GPHN'
p664
(lp665
g63
aI66507407
aI67181803
asS'ASPSCR1'
p666
(lp667
g104
aI81977550
aI82017404
asS'TP53'
p668
(lp669
g104
aI7668402
aI7687538
asS'GNAQ'
p670
(lp671
g99
aI77716087
aI78031458
asS'ESR1'
p672
(lp673
g6
aI151690496
aI152103274
asS'DDR2'
p674
(lp675
g23
aI162632465
aI162787400
asS'CD274'
p676
(lp677
g99
aI5450525
aI5470547
asS'SFPQ'
p678
(lp679
g23
aI35182932
aI35193148
asS'STRN'
p680
(lp681
g91
aI36843640
aI36966472
asS'PHF6'
p682
(lp683
g36
aI134373312
aI134428789
asS'LCK'
p684
(lp685
g23
aI32251239
aI32286165
asS'NTRK1'
p686
(lp687
g23
aI156860894
aI156881642
asS'TBX3'
p688
(lp689
g68
aI114670255
aI114683590
asS'BCORL1'
p690
(lp691
g36
aI130005188
aI130058083
asS'CD79B'
p692
(lp693
g104
aI63928740
aI63932336
asS'BCR'
p694
(lp695
g273
aI23180210
aI23318037
asS'CD79A'
p696
(lp697
g9
aI41877120
aI41881372
asS'STAT6'
p698
(lp699
g68
aI57095408
aI57111433
asS'STAT3'
p700
(lp701
g104
aI42313324
aI42388568
asS'HOXA13'
p702
(lp703
g56
aI27194364
aI27200106
asS'HOXA11'
p704
(lp705
g56
aI27181515
aI27185216
asS'RABEP1'
p706
(lp707
g104
aI5282300
aI5385812
asS'BCL7A'
p708
(lp709
g68
aI122019422
aI122062044
asS'GOLGA5'
p710
(lp711
g63
aI92794231
aI92839963
asS'SRC'
p712
(lp713
g214
aI37346154
aI37406050
asS'TAL1'
p714
(lp715
g23
aI47216292
aI47229771
asS'TAL2'
p716
(lp717
g99
aI105662457
aI105663112
asS'SALL4'
p718
(lp719
g214
aI51782331
aI51802520
asS'PICALM'
p720
(lp721
g12
aI85958814
aI86068929
asS'USP6'
p722
(lp723
g104
aI5116438
aI5174991
asS'ATRX'
p724
(lp725
g36
aI77504878
aI77786269
asS'RAD51B'
p726
(lp727
g63
aI67819779
aI68611565
asS'TBL1XR1'
p728
(lp729
g3
aI177019355
aI177196478
asS'KCNJ5'
p730
(lp731
g12
aI128891356
aI128921035
asS'LATS2'
p732
(lp733
g193
aI20973032
aI21061547
asS'GNAS'
p734
(lp735
g214
aI58852714
aI58911192
asS'IL2'
p736
(lp737
g115
aI122451470
aI122456725
asS'COL1A1'
p738
(lp739
g104
aI50183289
aI50201632
asS'CDH11'
p740
(lp741
g73
aI64943753
aI65122198
asS'PPP2R1A'
p742
(lp743
g9
aI52190039
aI52229533
asS'WT1'
p744
(lp745
g12
aI32387775
aI32435630
asS'SPEN'
p746
(lp747
g23
aI15847864
aI15940460
asS'BIRC3'
p748
(lp749
g12
aI102317495
aI102337734
asS'FOXO3'
p750
(lp751
g6
aI108560866
aI108684768
asS'MAP2K2'
p752
(lp753
g9
aI4090321
aI4124129
asS'MAP2K1'
p754
(lp755
g18
aI66386817
aI66492312
asS'RUNX1T1'
p756
(lp757
g94
aI91954967
aI92095654
asS'TOP1'
p758
(lp759
g214
aI41028818
aI41124487
asS'MAP2K4'
p760
(lp761
g104
aI12020834
aI12143830
asS'BCL9L'
p762
(lp763
g12
aI118893875
aI118910904
asS'FAS'
p764
(lp765
g51
aI88990657
aI89015785
asS'MLLT6'
p766
(lp767
g104
aI38705542
aI38729803
asS'MLLT1'
p768
(lp769
g9
aI6210379
aI6279948
asS'MLLT3'
p770
(lp771
g99
aI20341665
aI20622543
asS'NUTM2D'
p772
(lp773
g51
aI87357668
aI87367195
asS'NUTM2B'
p774
(lp775
g51
aI79703227
aI79712757
asS'HNRNPA2B1'
p776
(lp777
g56
aI26189927
aI26200746
asS'NRG1'
p778
(lp779
g94
aI32548635
aI32764407
asS'TERT'
p780
(lp781
g15
aI1253167
aI1295047
asS'PLAG1'
p782
(lp783
g94
aI56160904
aI56211279
asS'NT5C2'
p784
(lp785
g51
aI103088018
aI103193306
asS'MALT1'
p786
(lp787
g86
aI58671386
aI58754477
asS'KMT2C'
p788
(lp789
g56
aI152134925
aI152436005
asS'KMT2A'
p790
(lp791
g12
aI118436490
aI118526832
asS'SMARCB1'
p792
(lp793
g273
aI23786963
aI23834505
asS'KMT2D'
p794
(lp795
g68
aI49018975
aI49055324
asS'SPOP'
p796
(lp797
g104
aI49598884
aI49678110
asS'MSI2'
p798
(lp799
g104
aI57256534
aI57684685
asS'POU5F1'
p800
(lp801
g6
aI31164337
aI31170693
asS'CASP8'
p802
(lp803
g91
aI201258036
aI201287711
asS'BCL9'
p804
(lp805
g23
aI147541412
aI147626216
asS'NAB2'
p806
(lp807
g68
aI57088894
aI57095476
asS'BCL3'
p808
(lp809
g9
aI44748547
aI44760044
asS'BCL2'
p810
(lp811
g86
aI63123346
aI63320128
asS'SSX4'
p812
(lp813
g36
aI48383527
aI48393347
asS'SSX2'
p814
(lp815
g36
aI52696896
aI52707161
asS'SSX1'
p816
(lp817
g36
aI48255317
aI48267444
asS'CDX2'
p818
(lp819
g193
aI27962137
aI27971139
asS'AKT1'
p820
(lp821
g63
aI104769349
aI104794124
asS'AKT2'
p822
(lp823
g9
aI40230317
aI40285395
asS'MAFB'
p824
(lp825
g214
aI40685848
aI40689240
asS'NKX2-1'
p826
(lp827
g63
aI36516392
aI36520228
asS'FSTL3'
p828
(lp829
g9
aI676365
aI683399
asS'NTRK2'
p830
(lp831
g99
aI84669778
aI85027070
asS'NTRK3'
p832
(lp833
g18
aI87876757
aI88256731
asS'HSP90AB1'
p834
(lp835
g6
aI44247866
aI44253883
asS'SLC34A2'
p836
(lp837
g115
aI25655844
aI25678748
asS'ARHGAP26'
p838
(lp839
g15
aI142770377
aI143229011
asS'MYC'
p840
(lp841
g94
aI127736069
aI127741434
asS'MYB'
p842
(lp843
g6
aI135181315
aI135219167
asS'DDIT3'
p844
(lp845
g68
aI57516589
aI57520517
asS'DDX3X'
p846
(lp847
g36
aI41333284
aI41351668
asS'FLI1'
p848
(lp849
g12
aI128693770
aI128813267
asS'SMAD2'
p850
(lp851
g86
aI47808957
aI47930559
asS'ATP2B3'
p852
(lp853
g36
aI153536122
aI153582929
asS'UBR5'
p854
(lp855
g94
aI102253012
aI102412841
asS'KRAS'
p856
(lp857
g68
aI25209431
aI25250803
asS'SOCS1'
p858
(lp859
g73
aI11254417
aI11256200
asS'ACSL3'
p860
(lp861
g91
aI222860934
aI222944639
asS'DDX5'
p862
(lp863
g104
aI64499616
aI64506521
asS'DDX6'
p864
(lp865
g12
aI118747766
aI118790948
asS'FAT4'
p866
(lp867
g115
aI125316399
aI125492932
asS'KDM5A'
p868
(lp869
g68
aI280129
aI389454
asS'KDM5C'
p870
(lp871
g36
aI53192152
aI53225422
asS'TAF15'
p872
(lp873
g104
aI35809455
aI35847242
asS'TRIM33'
p874
(lp875
g23
aI114392777
aI114511160
asS'PCM1'
p876
(lp877
g94
aI17922840
aI18027968
asS'HLA-A'
p878
(lp879
g6
aI29941260
aI29945884
asS'RPL5'
p880
(lp881
g23
aI92831983
aI92841924
asS'NFKBIE'
p882
(lp883
g6
aI44258166
aI44265788
asS'DEK'
p884
(lp885
g6
aI18223868
aI18264823
asS'CLTC'
p886
(lp887
g104
aI59619689
aI59696956
asS'DNM2'
p888
(lp889
g9
aI10718131
aI10831903
asS'PREX2'
p890
(lp891
g94
aI67952118
aI68237030
asS'CHD4'
p892
(lp893
g68
aI6570088
aI6607476
asS'ASXL1'
p894
(lp895
g214
aI32358330
aI32439319
asS'AMER1'
p896
(lp897
g36
aI64185117
aI64205744
asS'RAD21'
p898
(lp899
g94
aI116845935
aI116874866
asS'FAT1'
p900
(lp901
g115
aI186587783
aI186723855
asS'PIK3R1'
p902
(lp903
g15
aI68215720
aI68301821
asS'TENT5C'
p904
(lp905
g23
aI117605934
aI117628372
asS'MYD88'
p906
(lp907
g3
aI38138478
aI38143019
asS'TFEB'
p908
(lp909
g6
aI41683978
aI41736259
asS'STAG2'
p910
(lp911
g36
aI123960519
aI124101498
asS'MN1'
p912
(lp913
g273
aI27748277
aI27801498
asS'RNF43'
p914
(lp915
g104
aI58353676
aI58417533
asS'RHOH'
p916
(lp917
g115
aI40196907
aI40246967
asS'VHL'
p918
(lp919
g3
aI10141008
aI10152220
asS'RHOA'
p920
(lp921
g3
aI49359145
aI49412202
asS'ETV1'
p922
(lp923
g56
aI13891228
aI13989946
asS'KDSR'
p924
(lp925
g86
aI63327726
aI63367510
asS'ETV5'
p926
(lp927
g3
aI186046308
aI186109112
asS'ETV4'
p928
(lp929
g104
aI43527844
aI43546432
asS'ETV6'
p930
(lp931
g68
aI11649854
aI11895402
asS'MPL'
p932
(lp933
g23
aI43337849
aI43352772
asS'SDC4'
p934
(lp935
g214
aI45325288
aI45348424
asS'HOXD13'
p936
(lp937
g91
aI176092891
aI176095938
asS'TNFAIP3'
p938
(lp939
g6
aI137867188
aI137883311
asS'HOXD11'
p940
(lp941
g91
aI176107286
aI176109588
asS'POT1'
p942
(lp943
g56
aI124822386
aI124929981
asS'SS18L1'
p944
(lp945
g214
aI62143795
aI62182484
asS'ABL1'
p946
(lp947
g99
aI130713946
aI130885683
asS'ABL2'
p948
(lp949
g23
aI179099327
aI179229601
asS'IKZF1'
p950
(lp951
g56
aI50304669
aI50405101
asS'NCOR2'
p952
(lp953
g68
aI124324415
aI124495252
asS'NCOR1'
p954
(lp955
g104
aI16029157
aI16215549
asS'TP63'
p956
(lp957
g3
aI189631427
aI189897279
asS'DROSHA'
p958
(lp959
g15
aI31400497
aI31532061
asS'BTG1'
p960
(lp961
g68
aI92140278
aI92145897
asS'BCL10'
p962
(lp963
g23
aI85266248
aI85277090
asS'MRTFA'
p964
(lp965
g273
aI40411390
aI40533635
asS'MAPK1'
p966
(lp967
g273
aI21754500
aI21867629
asS'KDM6A'
p968
(lp969
g36
aI44873511
aI45112602
asS'KNL1'
p970
(lp971
g18
aI40594020
aI40664342
asS'PML'
p972
(lp973
g18
aI73994717
aI74046771
asS'NFKB2'
p974
(lp975
g51
aI102394597
aI102402524
asS'LYL1'
p976
(lp977
g9
aI13099033
aI13102867
asS'ELL'
p978
(lp979
g9
aI18442663
aI18522127
asS'HMGA2'
p980
(lp981
g68
aI65824460
aI65915447
asS'HMGA1'
p982
(lp983
g6
aI34236873
aI34246230
asS'FEV'
p984
(lp985
g91
aI218981087
aI218985657
asS'FES'
p986
(lp987
g18
aI90884412
aI90895776
asS'BCOR'
p988
(lp989
g36
aI40051248
aI40097403
asS'GOPC'
p990
(lp991
g6
aI117560269
aI117602364
asS'HEY1'
p992
(lp993
g94
aI79764013
aI79767857
asS'ZNF521'
p994
(lp995
g86
aI25061926
aI25352152
asS'DICER1'
p996
(lp997
g63
aI95086228
aI95158010
asS'WWTR1'
p998
(lp999
g3
aI149517235
aI149703273
asS'MET'
p1000
(lp1001
g56
aI116672405
aI116796342
asS'PRKACA'
p1002
(lp1003
g9
aI14091688
aI14117744
asS'KDR'
p1004
(lp1005
g115
aI55078259
aI55125595
asS'HSP90AA1'
p1006
(lp1007
g63
aI102081049
aI102139686
asS'CIC'
p1008
(lp1009
g9
aI42284665
aI42295797
asS'ACVR1'
p1010
(lp1011
g91
aI157736444
aI157875111
asS'NUMA1'
p1012
(lp1013
g12
aI72002864
aI72080687
asS'BCL11A'
p1014
(lp1015
g91
aI60457192
aI60555154
asS'BCL11B'
p1016
(lp1017
g63
aI99169287
aI99271228
asS'MSN'
p1018
(lp1019
g36
aI65667670
aI65741931
asS'LATS1'
p1020
(lp1021
g6
aI149658153
aI149718256
asS'TLX3'
p1022
(lp1023
g15
aI171309284
aI171312134
asS'ELF4'
p1024
(lp1025
g36
aI130064928
aI130110495
asS'RMI2'
p1026
(lp1027
g73
aI11345431
aI11351762
asS'ZRSR2'
p1028
(lp1029
g36
aI15790472
aI15823260
asS'TLX1'
p1030
(lp1031
g51
aI101130505
aI101137789
asS'NRAS'
p1032
(lp1033
g23
aI114704469
aI114716894
asS'MLH1'
p1034
(lp1035
g3
aI36993332
aI37050918
asS'LRP1B'
p1036
(lp1037
g91
aI140231423
aI142131701
asS'CREB3L1'
p1038
(lp1039
g12
aI46277661
aI46321422
asS'SRSF2'
p1040
(lp1041
g104
aI76734115
aI76737333
asS'PTPRB'
p1042
(lp1043
g68
aI70515866
aI70637440
asS'NF2'
p1044
(lp1045
g273
aI29603558
aI29698598
asS'PDGFB'
p1046
(lp1047
g273
aI39223359
aI39244751
asS'DNMT3A'
p1048
(lp1049
g91
aI25227855
aI25342590
asS'PIM1'
p1050
(lp1051
g6
aI37170203
aI37175426
asS'HOOK3'
p1052
(lp1053
g94
aI42896932
aI43030539
asS'TMPRSS2'
p1054
(lp1055
g182
aI41464553
aI41508065
asS'AR'
p1056
(lp1057
g36
aI67544036
aI67730619
asS'TSC2'
p1058
(lp1059
g73
aI2047465
aI2088720
asS'KAT6B'
p1060
(lp1061
g51
aI74826625
aI75032622
asS'CLTCL1'
p1062
(lp1063
g273
aI19179473
aI19291714
asS'NPM1'
p1064
(lp1065
g15
aI171387648
aI171411137
asS'KAT6A'
p1066
(lp1067
g94
aI41929479
aI42051987
asS'NFIB'
p1068
(lp1069
g99
aI14087569
aI14313667
asS'PTPRT'
p1070
(lp1071
g214
aI42072752
aI43189969
asS'PTPRK'
p1072
(lp1073
g6
aI127968977
aI128520476
asS'EZR'
p1074
(lp1075
g6
aI158765748
aI158819412
asS'CREB3L2'
p1076
(lp1077
g56
aI137874979
aI138002057
asS'GRIN2A'
p1078
(lp1079
g73
aI9753404
aI10182754
asS'PTPRC'
p1080
(lp1081
g23
aI198639007
aI198757476
asS'BRAF'
p1082
(lp1083
g56
aI140730665
aI140924928
asS'GNA11'
p1084
(lp1085
g9
aI3094410
aI3124004
asS'SDHA'
p1086
(lp1087
g15
aI218241
aI256700
asS'BAP1'
p1088
(lp1089
g3
aI52401013
aI52410350
asS'ATF1'
p1090
(lp1091
g68
aI50764292
aI50821122
asS'SH2B3'
p1092
(lp1093
g68
aI111405948
aI111451623
as.